; Function Attrs: nounwind uwtable
define noalias noundef nonnull ptr @l_Lake_validatePkgName___lambda__1(ptr noundef %0, ptr readnone captures(none) %1, ptr noundef %2, ptr noundef %3) local_unnamed_addr #1 {
  %5 = tail call ptr @l_String_mapAux___at_String_toLower___spec__1(ptr noundef nonnull inttoptr (i64 1 to ptr), ptr noundef %0) #6
  %6 = load ptr, ptr @l_Lake_validatePkgName___lambda__1___closed__2, align 8, !tbaa !4
  %7 = load ptr, ptr @l_Lake_validatePkgName___lambda__1___closed__8, align 8, !tbaa !4
  %8 = tail call zeroext i8 @l_List_elem___rarg(ptr noundef %6, ptr noundef %5, ptr noundef %7) #6
  %9 = icmp eq i8 %8, 0
  br i1 %9, label %10, label %20

10:                                               ; preds = %4
  tail call void @lean_inc_heartbeat() #6
  %11 = tail call noalias ptr @mi_malloc_small(i64 noundef 24) #6
  %12 = icmp eq ptr %11, null
  br i1 %12, label %13, label %lean_alloc_ctor.exit

13:                                               ; preds = %10
  tail call void @lean_internal_panic_out_of_memory() #7
  unreachable

lean_alloc_ctor.exit:                             ; preds = %10
  %14 = getelementptr inbounds nuw i8, ptr %11, i64 4
  store i32 1, ptr %11, align 4, !tbaa !8
  store i32 131096, ptr %14, align 4
  %15 = getelementptr inbounds nuw i8, ptr %11, i64 8
  store ptr inttoptr (i64 1 to ptr), ptr %15, align 8, !tbaa !4
  %16 = getelementptr inbounds nuw i8, ptr %11, i64 16
  store ptr %2, ptr %16, align 8, !tbaa !4
  tail call void @lean_inc_heartbeat() #6
  %17 = tail call noalias ptr @mi_malloc_small(i64 noundef 24) #6
  %18 = icmp eq ptr %17, null
  br i1 %18, label %19, label %lean_alloc_ctor.exit27

19:                                               ; preds = %lean_alloc_ctor.exit
  tail call void @lean_internal_panic_out_of_memory() #7
  unreachable

20:                                               ; preds = %4
  %21 = getelementptr i8, ptr %2, i64 8
  %.val = load i64, ptr %21, align 8, !tbaa !12
  %22 = load ptr, ptr @l_Lake_validatePkgName___lambda__1___closed__10, align 8, !tbaa !4
  %23 = tail call ptr @lean_array_push(ptr noundef %2, ptr noundef %22) #6
  tail call void @lean_inc_heartbeat() #6
  %24 = tail call noalias ptr @mi_malloc_small(i64 noundef 24) #6
  %25 = icmp eq ptr %24, null
  br i1 %25, label %26, label %lean_alloc_ctor.exit28

26:                                               ; preds = %20
  tail call void @lean_internal_panic_out_of_memory() #7
  unreachable

lean_alloc_ctor.exit28:                           ; preds = %20
  %27 = shl i64 %.val, 1
  %28 = or disjoint i64 %27, 1
  %29 = inttoptr i64 %28 to ptr
  %30 = getelementptr inbounds nuw i8, ptr %24, i64 4
  store i32 1, ptr %24, align 4, !tbaa !8
  store i32 16908312, ptr %30, align 4
  %31 = getelementptr inbounds nuw i8, ptr %24, i64 8
  store ptr %29, ptr %31, align 8, !tbaa !4
  %32 = getelementptr inbounds nuw i8, ptr %24, i64 16
  store ptr %23, ptr %32, align 8, !tbaa !4
  tail call void @lean_inc_heartbeat() #6
  %33 = tail call noalias ptr @mi_malloc_small(i64 noundef 24) #6
  %34 = icmp eq ptr %33, null
  br i1 %34, label %35, label %lean_alloc_ctor.exit27

35:                                               ; preds = %lean_alloc_ctor.exit28
  tail call void @lean_internal_panic_out_of_memory() #7
  unreachable

lean_alloc_ctor.exit27:                           ; preds = %lean_alloc_ctor.exit28, %lean_alloc_ctor.exit
  %.sink35 = phi ptr [ %17, %lean_alloc_ctor.exit ], [ %33, %lean_alloc_ctor.exit28 ]
  %.sink = phi ptr [ %11, %lean_alloc_ctor.exit ], [ %24, %lean_alloc_ctor.exit28 ]
  %36 = getelementptr inbounds nuw i8, ptr %.sink35, i64 4
  store i32 1, ptr %.sink35, align 4, !tbaa !8
  store i32 131096, ptr %36, align 4
  %37 = getelementptr inbounds nuw i8, ptr %.sink35, i64 8
  store ptr %.sink, ptr %37, align 8, !tbaa !4
  %38 = getelementptr inbounds nuw i8, ptr %.sink35, i64 16
  store ptr %3, ptr %38, align 8, !tbaa !4
  ret ptr %.sink35
}